; Function Attrs: mustprogress nounwind uwtable
define dso_local noundef range(i32 0, 3) i32 @_ZNK5clang14IdentifierInfo25isReservedLiteralSuffixIdEv(ptr nocapture noundef nonnull readonly align 8 dereferenceable(24) %0) local_unnamed_addr #3 align 2 {
  %2 = alloca %"class.llvm::StringRef", align 8
  %3 = getelementptr inbounds nuw i8, ptr %0, i64 16
  %4 = load ptr, ptr %3, align 8
  %5 = getelementptr inbounds i8, ptr %4, i64 16
  %6 = load i64, ptr %4, align 8
  %7 = and i64 %6, 4294967295
  store ptr %5, ptr %2, align 8
  %8 = getelementptr inbounds nuw i8, ptr %2, i64 8
  store i64 %7, ptr %8, align 8
  %9 = load i8, ptr %5, align 1
  %.not = icmp eq i8 %9, 95
  br i1 %.not, label %10, label %12

10:                                               ; preds = %1
  %11 = call noundef i64 @_ZNK4llvm9StringRef4findES0_m(ptr noundef nonnull align 8 dereferenceable(16) %2, ptr nonnull @.str.441, i64 2, i64 noundef 0) #26
  %.not1 = icmp eq i64 %11, -1
  %. = select i1 %.not1, i32 0, i32 2
  br label %12

12:                                               ; preds = %10, %1
  %.0 = phi i32 [ 1, %1 ], [ %., %10 ]
  ret i32 %.0
}